; ModuleID = 'source-C-CXX/15/1432.c'
source_filename = "source-C-CXX/15/1432.c"
target datalayout = "e-m:e-p270:32:32-p271:32:32-p272:64:64-i64:64-f80:128-n8:16:32:64-S128"
target triple = "x86_64-pc-linux-gnu"

@.str = private unnamed_addr constant [3 x i8] c"%d\00", align 1
@.str.1 = private unnamed_addr constant [5 x i8] c"%d%d\00", align 1
@.str.2 = private unnamed_addr constant [7 x i8] c"%d%d%d\00", align 1
@.str.3 = private unnamed_addr constant [9 x i8] c"%d%d%d%d\00", align 1
@.str.4 = private unnamed_addr constant [5 x i8] c"over\00", align 1

; Function Attrs: nofree nounwind sspstrong uwtable
define dso_local i32 @main() local_unnamed_addr #0 {
  %1 = alloca i32, align 4
  %2 = bitcast i32* %1 to i8*
  call void @llvm.lifetime.start.p0i8(i64 4, i8* nonnull %2) #3
  %3 = call i32 (i8*, ...) @__isoc99_scanf(i8* getelementptr inbounds ([3 x i8], [3 x i8]* @.str, i64 0, i64 0), i32* nonnull %1)
  %4 = load i32, i32* %1, align 4, !tbaa !5
  %5 = icmp slt i32 %4, 10
  br i1 %5, label %6, label %8

6:                                                ; preds = %0
  %7 = call i32 (i8*, ...) @printf(i8* nonnull dereferenceable(1) getelementptr inbounds ([3 x i8], [3 x i8]* @.str, i64 0, i64 0), i32 %4)
  br label %51

8:                                                ; preds = %0
  %9 = icmp slt i32 %4, 100
  br i1 %9, label %10, label %17

10:                                               ; preds = %8
  %11 = trunc i32 %4 to i8
  %12 = urem i8 %11, 10
  %13 = zext i8 %12 to i32
  %14 = udiv i8 %11, 10
  %15 = zext i8 %14 to i32
  %16 = call i32 (i8*, ...) @printf(i8* nonnull dereferenceable(1) getelementptr inbounds ([5 x i8], [5 x i8]* @.str.1, i64 0, i64 0), i32 %13, i32 %15)
  br label %51

17:                                               ; preds = %8
  %18 = icmp slt i32 %4, 1000
  br i1 %18, label %19, label %30

19:                                               ; preds = %17
  %20 = trunc i32 %4 to i16
  %21 = udiv i16 %20, 100
  %22 = zext i16 %21 to i32
  %23 = udiv i16 %20, 10
  %24 = zext i16 %23 to i32
  %25 = mul nsw i32 %22, -10
  %26 = add nsw i32 %25, %24
  %27 = urem i16 %20, 10
  %28 = zext i16 %27 to i32
  %29 = call i32 (i8*, ...) @printf(i8* nonnull dereferenceable(1) getelementptr inbounds ([7 x i8], [7 x i8]* @.str.2, i64 0, i64 0), i32 %28, i32 %26, i32 %22)
  br label %51

30:                                               ; preds = %17
  %31 = icmp slt i32 %4, 10000
  br i1 %31, label %32, label %49

32:                                               ; preds = %30
  %33 = trunc i32 %4 to i16
  %34 = udiv i16 %33, 1000
  %35 = zext i16 %34 to i32
  %36 = udiv i16 %33, 100
  %37 = zext i16 %36 to i32
  %38 = mul nsw i32 %35, -10
  %39 = add nsw i32 %38, %37
  %40 = udiv i16 %33, 10
  %41 = zext i16 %40 to i32
  %42 = mul nsw i32 %35, -100
  %43 = add nsw i32 %42, %41
  %44 = mul nsw i32 %39, -10
  %45 = add nsw i32 %43, %44
  %46 = urem i16 %33, 10
  %47 = zext i16 %46 to i32
  %48 = call i32 (i8*, ...) @printf(i8* nonnull dereferenceable(1) getelementptr inbounds ([9 x i8], [9 x i8]* @.str.3, i64 0, i64 0), i32 %47, i32 %45, i32 %39, i32 %35)
  br label %51

49:                                               ; preds = %30
  %50 = call i32 (i8*, ...) @printf(i8* nonnull dereferenceable(1) getelementptr inbounds ([5 x i8], [5 x i8]* @.str.4, i64 0, i64 0))
  br label %51

51:                                               ; preds = %10, %32, %49, %19, %6
  call void @llvm.lifetime.end.p0i8(i64 4, i8* nonnull %2) #3
  ret i32 0
}

; Function Attrs: argmemonly mustprogress nofree nosync nounwind willreturn
declare void @llvm.lifetime.start.p0i8(i64 immarg, i8* nocapture) #1

; Function Attrs: nofree nounwind
declare noundef i32 @__isoc99_scanf(i8* nocapture noundef readonly, ...) local_unnamed_addr #2

; Function Attrs: nofree nounwind
declare noundef i32 @printf(i8* nocapture noundef readonly, ...) local_unnamed_addr #2

; Function Attrs: argmemonly mustprogress nofree nosync nounwind willreturn
declare void @llvm.lifetime.end.p0i8(i64 immarg, i8* nocapture) #1


!llvm.module.flags = !{!0, !1, !2, !3}
!llvm.ident = !{!4}

!0 = !{i32 1, !"wchar_size", i32 4}
!1 = !{i32 7, !"PIC Level", i32 2}
!2 = !{i32 7, !"PIE Level", i32 2}
!3 = !{i32 7, !"uwtable", i32 1}
!4 = !{!"clang version 13.0.0"}
!5 = !{!6, !6, i64 0}
!6 = !{!"int", !7, i64 0}
!7 = !{!"omnipotent char", !8, i64 0}
!8 = !{!"Simple C/C++ TBAA"}
